; Function Attrs: nounwind uwtable
define internal void @_CustomWriteFunc(ptr noundef %0, ptr noundef captures(none) %1, i64 noundef %2) #0 {
  %.not = icmp eq i64 %2, 0
  br i1 %.not, label %_WriteBuf.exit, label %4

4:                                                ; preds = %3
  %5 = trunc i64 %2 to i32
  %6 = tail call i64 @WriteInt(ptr noundef %0, i32 noundef %5) #7
  %7 = getelementptr inbounds nuw i8, ptr %0, i64 488
  %8 = load ptr, ptr %7, align 8
  %9 = tail call i64 @fwrite(ptr noundef %1, i64 noundef 1, i64 noundef %2, ptr noundef %8)
  %.not.i = icmp eq i64 %9, %2
  br i1 %.not.i, label %_WriteBuf.exit, label %10

10:                                               ; preds = %4
  tail call void (i32, i32, ptr, ...) @pg_log_generic(i32 noundef 4, i32 noundef 0, ptr noundef nonnull @.str.18) #7
  tail call void @exit_nicely(i32 noundef 1) #8
  unreachable

_WriteBuf.exit:                                   ; preds = %4, %3
  ret void
}